target datalayout = "e-m:e-p270:32:32-p271:32:32-p272:64:64-i64:64-i128:128-f80:128-n8:16:32:64-S128"
target triple = "x86_64-pc-linux-gnu"

%struct.evp_cipher_ctx_st = type { ptr, ptr, i32, i32, [16 x i8], [16 x i8], [32 x i8], i32, ptr, i32, i32, i64, ptr, i32, i32, [32 x i8], i64, ptr, ptr }
%struct.EVP_ARIA_CCM_CTX = type { %union.anon.1, i32, i32, i32, i32, i32, i32, i32, %struct.ccm128_context, ptr }
%union.anon.1 = type { double, [272 x i8] }
%struct.ccm128_context = type { %union.anon.2, %union.anon.2, i64, ptr, ptr }
%union.anon.2 = type { [2 x i64] }

@.str = private unnamed_addr constant [31 x i8] c"../openssl/crypto/evp/e_aria.c\00", align 1
@__func__.aria_ccm_init_key = private unnamed_addr constant [18 x i8] c"aria_ccm_init_key\00", align 1

; Function Attrs: nounwind uwtable
define internal i32 @aria_ccm_init_key(ptr noundef %0, ptr noundef %1, ptr noundef %2, i32 noundef %3) #0 {
  %5 = alloca i32, align 4
  %6 = alloca ptr, align 8
  %7 = alloca ptr, align 8
  %8 = alloca ptr, align 8
  %9 = alloca i32, align 4
  %10 = alloca i32, align 4
  %11 = alloca ptr, align 8
  %12 = alloca i32, align 4
  store ptr %0, ptr %6, align 8, !tbaa !3
  store ptr %1, ptr %7, align 8, !tbaa !8
  store ptr %2, ptr %8, align 8, !tbaa !8
  store i32 %3, ptr %9, align 4, !tbaa !10
  call void @llvm.lifetime.start.p0(i64 4, ptr %10) #4
  call void @llvm.lifetime.start.p0(i64 8, ptr %11) #4
  %13 = load ptr, ptr %6, align 8, !tbaa !3
  %14 = call ptr @EVP_CIPHER_CTX_get_cipher_data(ptr noundef %13)
  store ptr %14, ptr %11, align 8, !tbaa !41
  %15 = load ptr, ptr %8, align 8, !tbaa !8
  %16 = icmp ne ptr %15, null
  br i1 %16, label %21, label %17

17:                                               ; preds = %4
  %18 = load ptr, ptr %7, align 8, !tbaa !8
  %19 = icmp ne ptr %18, null
  br i1 %19, label %21, label %20

20:                                               ; preds = %17
  store i32 1, ptr %5, align 4
  store i32 1, ptr %12, align 4
  br label %66

21:                                               ; preds = %17, %4
  %22 = load ptr, ptr %7, align 8, !tbaa !8
  %23 = icmp ne ptr %22, null
  br i1 %23, label %24, label %50

24:                                               ; preds = %21
  %25 = load ptr, ptr %7, align 8, !tbaa !8
  %26 = load ptr, ptr %6, align 8, !tbaa !3
  %27 = call i32 @EVP_CIPHER_CTX_get_key_length(ptr noundef %26)
  %28 = mul nsw i32 %27, 8
  %29 = load ptr, ptr %11, align 8, !tbaa !41
  %30 = getelementptr inbounds nuw %struct.EVP_ARIA_CCM_CTX, ptr %29, i32 0, i32 0
  %31 = call i32 @ossl_aria_set_encrypt_key(ptr noundef %25, i32 noundef %28, ptr noundef %30)
  store i32 %31, ptr %10, align 4, !tbaa !10
  %32 = load ptr, ptr %11, align 8, !tbaa !41
  %33 = getelementptr inbounds nuw %struct.EVP_ARIA_CCM_CTX, ptr %32, i32 0, i32 8
  %34 = load ptr, ptr %11, align 8, !tbaa !41
  %35 = getelementptr inbounds nuw %struct.EVP_ARIA_CCM_CTX, ptr %34, i32 0, i32 6
  %36 = load i32, ptr %35, align 4, !tbaa !59
  %37 = load ptr, ptr %11, align 8, !tbaa !41
  %38 = getelementptr inbounds nuw %struct.EVP_ARIA_CCM_CTX, ptr %37, i32 0, i32 5
  %39 = load i32, ptr %38, align 8, !tbaa !63
  %40 = load ptr, ptr %11, align 8, !tbaa !41
  %41 = getelementptr inbounds nuw %struct.EVP_ARIA_CCM_CTX, ptr %40, i32 0, i32 0
  call void @CRYPTO_ccm128_init(ptr noundef %33, i32 noundef %36, i32 noundef %39, ptr noundef %41, ptr noundef @ossl_aria_encrypt)
  %42 = load i32, ptr %10, align 4, !tbaa !10
  %43 = icmp slt i32 %42, 0
  br i1 %43, label %44, label %45

44:                                               ; preds = %24
  call void @ERR_new()
  call void @ERR_set_debug(ptr noundef @.str, i32 noundef 524, ptr noundef @__func__.aria_ccm_init_key)
  call void (i32, i32, ptr, ...) @ERR_set_error(i32 noundef 6, i32 noundef 176, ptr noundef null)
  store i32 0, ptr %5, align 4
  store i32 1, ptr %12, align 4
  br label %66

45:                                               ; preds = %24
  %46 = load ptr, ptr %11, align 8, !tbaa !41
  %47 = getelementptr inbounds nuw %struct.EVP_ARIA_CCM_CTX, ptr %46, i32 0, i32 9
  store ptr null, ptr %47, align 8, !tbaa !64
  %48 = load ptr, ptr %11, align 8, !tbaa !41
  %49 = getelementptr inbounds nuw %struct.EVP_ARIA_CCM_CTX, ptr %48, i32 0, i32 1
  store i32 1, ptr %49, align 8, !tbaa !65
  br label %50

50:                                               ; preds = %45, %21
  %51 = load ptr, ptr %8, align 8, !tbaa !8
  %52 = icmp ne ptr %51, null
  br i1 %52, label %53, label %65

53:                                               ; preds = %50
  %54 = load ptr, ptr %6, align 8, !tbaa !3
  %55 = getelementptr inbounds nuw %struct.evp_cipher_ctx_st, ptr %54, i32 0, i32 5
  %56 = getelementptr inbounds [16 x i8], ptr %55, i64 0, i64 0
  %57 = load ptr, ptr %8, align 8, !tbaa !8
  %58 = load ptr, ptr %11, align 8, !tbaa !41
  %59 = getelementptr inbounds nuw %struct.EVP_ARIA_CCM_CTX, ptr %58, i32 0, i32 5
  %60 = load i32, ptr %59, align 8, !tbaa !63
  %61 = sub nsw i32 15, %60
  %62 = sext i32 %61 to i64
  call void @llvm.memcpy.p0.p0.i64(ptr align 8 %56, ptr align 1 %57, i64 %62, i1 false)
  %63 = load ptr, ptr %11, align 8, !tbaa !41
  %64 = getelementptr inbounds nuw %struct.EVP_ARIA_CCM_CTX, ptr %63, i32 0, i32 2
  store i32 1, ptr %64, align 4, !tbaa !66
  br label %65

65:                                               ; preds = %53, %50
  store i32 1, ptr %5, align 4
  store i32 1, ptr %12, align 4
  br label %66

66:                                               ; preds = %65, %44, %20
  call void @llvm.lifetime.end.p0(i64 8, ptr %11) #4
  call void @llvm.lifetime.end.p0(i64 4, ptr %10) #4
  %67 = load i32, ptr %5, align 4
  ret i32 %67
}