; Function Attrs: nounwind uwtable
define internal range(i32 0, 2) i32 @aria_ccm_init_key(ptr noundef %0, ptr noundef %1, ptr noundef readonly captures(address_is_null) %2, i32 %3) #1 {
  %5 = tail call ptr @EVP_CIPHER_CTX_get_cipher_data(ptr noundef %0) #6
  %6 = icmp ne ptr %2, null
  %7 = icmp ne ptr %1, null
  %or.cond = or i1 %7, %6
  br i1 %or.cond, label %8, label %31

8:                                                ; preds = %4
  br i1 %7, label %9, label %23

9:                                                ; preds = %8
  %10 = tail call i32 @EVP_CIPHER_CTX_get_key_length(ptr noundef %0) #6
  %11 = shl nsw i32 %10, 3
  %12 = tail call i32 @ossl_aria_set_encrypt_key(ptr noundef nonnull %1, i32 noundef %11, ptr noundef %5) #6
  %13 = getelementptr inbounds nuw i8, ptr %5, i64 312
  %14 = getelementptr inbounds nuw i8, ptr %5, i64 300
  %15 = load i32, ptr %14, align 4, !tbaa !50
  %16 = getelementptr inbounds nuw i8, ptr %5, i64 296
  %17 = load i32, ptr %16, align 8, !tbaa !54
  tail call void @CRYPTO_ccm128_init(ptr noundef nonnull %13, i32 noundef %15, i32 noundef %17, ptr noundef %5, ptr noundef nonnull @ossl_aria_encrypt) #6
  %18 = icmp slt i32 %12, 0
  br i1 %18, label %19, label %20

19:                                               ; preds = %9
  tail call void @ERR_new() #6
  tail call void @ERR_set_debug(ptr noundef nonnull @.str, i32 noundef 524, ptr noundef nonnull @__func__.aria_ccm_init_key) #6
  tail call void (i32, i32, ptr, ...) @ERR_set_error(i32 noundef 6, i32 noundef 176, ptr noundef null) #6
  br label %31

20:                                               ; preds = %9
  %21 = getelementptr inbounds nuw i8, ptr %5, i64 368
  store ptr null, ptr %21, align 8, !tbaa !55
  %22 = getelementptr inbounds nuw i8, ptr %5, i64 280
  store i32 1, ptr %22, align 8, !tbaa !56
  br label %23

23:                                               ; preds = %20, %8
  br i1 %6, label %24, label %31

24:                                               ; preds = %23
  %25 = getelementptr inbounds nuw i8, ptr %0, i64 40
  %26 = getelementptr inbounds nuw i8, ptr %5, i64 296
  %27 = load i32, ptr %26, align 8, !tbaa !54
  %28 = sub nsw i32 15, %27
  %29 = sext i32 %28 to i64
  tail call void @llvm.memcpy.p0.p0.i64(ptr nonnull align 8 %25, ptr nonnull align 1 %2, i64 %29, i1 false)
  %30 = getelementptr inbounds nuw i8, ptr %5, i64 284
  store i32 1, ptr %30, align 4, !tbaa !57
  br label %31

31:                                               ; preds = %23, %24, %4, %19
  %.0 = phi i32 [ 0, %19 ], [ 1, %4 ], [ 1, %24 ], [ 1, %23 ]
  ret i32 %.0
}